target datalayout = "e-m:e-p270:32:32-p271:32:32-p272:64:64-i64:64-i128:128-f80:128-n8:16:32:64-S128"
target triple = "x86_64-pc-linux-gnu"

%struct.xcgroup_ns_t = type { ptr, ptr, ptr, ptr }
%struct.xcgroup_t = type { ptr, ptr, ptr, i32, i32, i32 }
%struct.slurm_conf_t = type { i64, ptr, i16, ptr, ptr, ptr, ptr, ptr, i16, ptr, ptr, ptr, ptr, ptr, ptr, ptr, i16, ptr, ptr, ptr, ptr, i16, ptr, ptr, ptr, i64, ptr, ptr, ptr, ptr, i16, ptr, ptr, i16, i32, ptr, i32, ptr, i32, i32, ptr, ptr, i64, i64, ptr, i16, i16, ptr, i32, i32, ptr, i32, ptr, i32, i16, i16, i16, ptr, i16, i16, ptr, ptr, i32, i16, i16, ptr, i32, i16, ptr, ptr, ptr, ptr, i16, ptr, ptr, ptr, ptr, i32, ptr, ptr, ptr, ptr, i16, i16, ptr, i32, i32, i32, i16, i16, ptr, ptr, i16, ptr, ptr, i32, i32, i32, i32, i32, i64, i32, i32, i16, ptr, ptr, i32, ptr, ptr, ptr, i16, i32, ptr, ptr, i16, ptr, ptr, i32, i16, ptr, ptr, ptr, ptr, i32, i32, i16, i16, i32, ptr, i16, ptr, i32, i32, i32, i32, i32, i32, ptr, i16, ptr, ptr, i32, i16, ptr, i32, i16, i16, ptr, ptr, ptr, i16, ptr, ptr, ptr, ptr, i16, i16, ptr, i16, ptr, i16, ptr, i16, ptr, i16, ptr, ptr, ptr, ptr, i16, ptr, ptr, ptr, i32, ptr, i32, ptr, ptr, i16, ptr, ptr, i32, i16, ptr, ptr, i16, i16, ptr, i16, ptr, ptr, ptr, i32, ptr, i16, i16, ptr, ptr, ptr, ptr, ptr, ptr, ptr, ptr, i16, i32, i16, ptr, ptr, ptr, ptr, i32, ptr, ptr, ptr, i16, ptr, ptr, ptr, i16, ptr, i16, ptr, i16, i16, ptr }
%struct.bpf_program = type { i64, i64, ptr }
%struct.task_cg_info_t = type { %struct.xcgroup_t, i32, %struct.bpf_program }

@plugin_type = dso_local constant [10 x i8] c"cgroup/v2\00", align 1
@int_cg_ns = internal global %struct.xcgroup_ns_t zeroinitializer, align 8
@task_list = internal global ptr null, align 8
@int_cg = internal global [9 x %struct.xcgroup_t] zeroinitializer, align 16
@slurm_conf = external global %struct.slurm_conf_t, align 8
@task_special_id = internal global i32 -2, align 4
@.str.53 = private unnamed_addr constant [12 x i8] c"cgroup_v2.c\00", align 1
@.str.62 = private unnamed_addr constant [56 x i8] c"%s: %s: CGROUP: Starting task_special cgroup accounting\00", align 1
@__func__.cgroup_p_task_addto = private unnamed_addr constant [20 x i8] c"cgroup_p_task_addto\00", align 1
@.str.63 = private unnamed_addr constant [51 x i8] c"%s: %s: CGROUP: Starting task %u cgroup accounting\00", align 1
@.str.64 = private unnamed_addr constant [16 x i8] c"%s/task_special\00", align 1
@.str.65 = private unnamed_addr constant [11 x i8] c"%s/task_%u\00", align 1
@.str.66 = private unnamed_addr constant [37 x i8] c"unable to create task_special cgroup\00", align 1
@.str.67 = private unnamed_addr constant [32 x i8] c"unable to create task %u cgroup\00", align 1
@.str.68 = private unnamed_addr constant [42 x i8] c"unable to instantiate task_special cgroup\00", align 1
@.str.69 = private unnamed_addr constant [37 x i8] c"unable to instantiate task %u cgroup\00", align 1
@.str.70 = private unnamed_addr constant [31 x i8] c"Unable to move pid %d to %s cg\00", align 1

; Function Attrs: nounwind uwtable
define dso_local i32 @cgroup_p_task_addto(i32 noundef %0, ptr noundef %1, i32 noundef %2, i32 noundef %3) #0 {
  %5 = alloca i32, align 4
  %6 = alloca i32, align 4
  %7 = alloca ptr, align 8
  %8 = alloca i32, align 4
  %9 = alloca i32, align 4
  %10 = alloca ptr, align 8
  %11 = alloca ptr, align 8
  %12 = alloca i8, align 1
  %13 = alloca i32, align 4
  store i32 %0, ptr %6, align 4
  store ptr %1, ptr %7, align 8
  store i32 %2, ptr %8, align 4
  store i32 %3, ptr %9, align 4
  call void @llvm.lifetime.start.p0(i64 8, ptr %10) #10
  call void @llvm.lifetime.start.p0(i64 8, ptr %11) #10
  store ptr null, ptr %11, align 8
  call void @llvm.lifetime.start.p0(i64 1, ptr %12) #10
  store i8 0, ptr %12, align 1
  %14 = load i32, ptr %8, align 4
  %15 = call i32 @getpid() #10
  %16 = icmp eq i32 %14, %15
  br i1 %16, label %17, label %18

17:                                               ; preds = %4
  store i32 0, ptr %5, align 4
  store i32 1, ptr %13, align 4
  br label %135

18:                                               ; preds = %4
  %19 = load i32, ptr %9, align 4
  %20 = load i32, ptr @task_special_id, align 4
  %21 = icmp eq i32 %19, %20
  br i1 %21, label %22, label %38

22:                                               ; preds = %18
  br label %23

23:                                               ; preds = %22
  %24 = load i64, ptr getelementptr inbounds nuw (%struct.slurm_conf_t, ptr @slurm_conf, i32 0, i32 42), align 8
  %25 = and i64 %24, 36028797018963968
  %26 = icmp ne i64 %25, 0
  br i1 %26, label %27, label %35

27:                                               ; preds = %23
  br label %28

28:                                               ; preds = %27
  %29 = call i32 @get_log_level()
  %30 = icmp sge i32 %29, 4
  br i1 %30, label %31, label %32

31:                                               ; preds = %28
  call void (i32, ptr, ...) @log_var(i32 noundef 4, ptr noundef @.str.62, ptr noundef @plugin_type, ptr noundef @__func__.cgroup_p_task_addto)
  br label %32

32:                                               ; preds = %31, %28
  br label %33

33:                                               ; preds = %32
  br label %34

34:                                               ; preds = %33
  br label %35

35:                                               ; preds = %34, %23
  br label %36

36:                                               ; preds = %35
  br label %37

37:                                               ; preds = %36
  br label %55

38:                                               ; preds = %18
  br label %39

39:                                               ; preds = %38
  %40 = load i64, ptr getelementptr inbounds nuw (%struct.slurm_conf_t, ptr @slurm_conf, i32 0, i32 42), align 8
  %41 = and i64 %40, 36028797018963968
  %42 = icmp ne i64 %41, 0
  br i1 %42, label %43, label %52

43:                                               ; preds = %39
  br label %44

44:                                               ; preds = %43
  %45 = call i32 @get_log_level()
  %46 = icmp sge i32 %45, 4
  br i1 %46, label %47, label %49

47:                                               ; preds = %44
  %48 = load i32, ptr %9, align 4
  call void (i32, ptr, ...) @log_var(i32 noundef 4, ptr noundef @.str.63, ptr noundef @plugin_type, ptr noundef @__func__.cgroup_p_task_addto, i32 noundef %48)
  br label %49

49:                                               ; preds = %47, %44
  br label %50

50:                                               ; preds = %49
  br label %51

51:                                               ; preds = %50
  br label %52

52:                                               ; preds = %51, %39
  br label %53

53:                                               ; preds = %52
  br label %54

54:                                               ; preds = %53
  br label %55

55:                                               ; preds = %54, %37
  %56 = load ptr, ptr @task_list, align 8
  %57 = call ptr @list_find_first(ptr noundef %56, ptr noundef @_find_task_cg_info, ptr noundef %9)
  store ptr %57, ptr %10, align 8
  %58 = icmp ne ptr %57, null
  br i1 %58, label %64, label %59

59:                                               ; preds = %55
  %60 = call ptr @slurm_xcalloc(i64 noundef 1, i64 noundef 72, i1 noundef zeroext true, i1 noundef zeroext false, ptr noundef @.str.53, i32 noundef 2450, ptr noundef @__func__.cgroup_p_task_addto)
  store ptr %60, ptr %10, align 8
  %61 = load i32, ptr %9, align 4
  %62 = load ptr, ptr %10, align 8
  %63 = getelementptr inbounds nuw %struct.task_cg_info_t, ptr %62, i32 0, i32 1
  store i32 %61, ptr %63, align 8
  store i8 1, ptr %12, align 1
  br label %64

64:                                               ; preds = %59, %55
  %65 = load i8, ptr %12, align 1, !range !8, !noundef !9
  %66 = trunc i8 %65 to i1
  br i1 %66, label %67, label %114

67:                                               ; preds = %64
  %68 = load i32, ptr %9, align 4
  %69 = load i32, ptr @task_special_id, align 4
  %70 = icmp eq i32 %68, %69
  br i1 %70, label %71, label %73

71:                                               ; preds = %67
  %72 = load ptr, ptr getelementptr inbounds nuw (%struct.xcgroup_t, ptr getelementptr inbounds ([9 x %struct.xcgroup_t], ptr @int_cg, i64 0, i64 6), i32 0, i32 1), align 8
  call void (ptr, ptr, ...) @_xstrfmtcat(ptr noundef %11, ptr noundef @.str.64, ptr noundef %72)
  br label %76

73:                                               ; preds = %67
  %74 = load ptr, ptr getelementptr inbounds nuw (%struct.xcgroup_t, ptr getelementptr inbounds ([9 x %struct.xcgroup_t], ptr @int_cg, i64 0, i64 6), i32 0, i32 1), align 8
  %75 = load i32, ptr %9, align 4
  call void (ptr, ptr, ...) @_xstrfmtcat(ptr noundef %11, ptr noundef @.str.65, ptr noundef %74, i32 noundef %75)
  br label %76

76:                                               ; preds = %73, %71
  %77 = load ptr, ptr %10, align 8
  %78 = getelementptr inbounds nuw %struct.task_cg_info_t, ptr %77, i32 0, i32 0
  %79 = load ptr, ptr %11, align 8
  %80 = call i32 @common_cgroup_create(ptr noundef @int_cg_ns, ptr noundef %78, ptr noundef %79, i32 noundef 0, i32 noundef 0)
  %81 = icmp ne i32 %80, 0
  br i1 %81, label %82, label %92

82:                                               ; preds = %76
  %83 = load i32, ptr %9, align 4
  %84 = load i32, ptr @task_special_id, align 4
  %85 = icmp eq i32 %83, %84
  br i1 %85, label %86, label %88

86:                                               ; preds = %82
  %87 = call i32 (ptr, ...) @error(ptr noundef @.str.66)
  br label %91

88:                                               ; preds = %82
  %89 = load i32, ptr %9, align 4
  %90 = call i32 (ptr, ...) @error(ptr noundef @.str.67, i32 noundef %89)
  br label %91

91:                                               ; preds = %88, %86
  call void @slurm_xfree(ptr noundef %10)
  call void @slurm_xfree(ptr noundef %11)
  store i32 -1, ptr %5, align 4
  store i32 1, ptr %13, align 4
  br label %135

92:                                               ; preds = %76
  call void @slurm_xfree(ptr noundef %11)
  %93 = load ptr, ptr %10, align 8
  %94 = getelementptr inbounds nuw %struct.task_cg_info_t, ptr %93, i32 0, i32 0
  %95 = call i32 @common_cgroup_instantiate(ptr noundef %94)
  %96 = icmp ne i32 %95, 0
  br i1 %96, label %97, label %109

97:                                               ; preds = %92
  %98 = load i32, ptr %9, align 4
  %99 = load i32, ptr @task_special_id, align 4
  %100 = icmp eq i32 %98, %99
  br i1 %100, label %101, label %103

101:                                              ; preds = %97
  %102 = call i32 (ptr, ...) @error(ptr noundef @.str.68)
  br label %106

103:                                              ; preds = %97
  %104 = load i32, ptr %9, align 4
  %105 = call i32 (ptr, ...) @error(ptr noundef @.str.69, i32 noundef %104)
  br label %106

106:                                              ; preds = %103, %101
  %107 = load ptr, ptr %10, align 8
  %108 = getelementptr inbounds nuw %struct.task_cg_info_t, ptr %107, i32 0, i32 0
  call void @common_cgroup_destroy(ptr noundef %108)
  call void @slurm_xfree(ptr noundef %10)
  store i32 -1, ptr %5, align 4
  store i32 1, ptr %13, align 4
  br label %135

109:                                              ; preds = %92
  %110 = load ptr, ptr %10, align 8
  %111 = getelementptr inbounds nuw %struct.task_cg_info_t, ptr %110, i32 0, i32 2
  call void @init_ebpf_prog(ptr noundef %111)
  %112 = load ptr, ptr @task_list, align 8
  %113 = load ptr, ptr %10, align 8
  call void @list_append(ptr noundef %112, ptr noundef %113)
  br label %114

114:                                              ; preds = %109, %64
  %115 = load ptr, ptr %10, align 8
  %116 = getelementptr inbounds nuw %struct.task_cg_info_t, ptr %115, i32 0, i32 0
  %117 = load i32, ptr %8, align 4
  %118 = call i32 @common_cgroup_move_process(ptr noundef %116, i32 noundef %117)
  %119 = icmp ne i32 %118, 0
  br i1 %119, label %120, label %127

120:                                              ; preds = %114
  %121 = load i32, ptr %8, align 4
  %122 = load ptr, ptr %10, align 8
  %123 = getelementptr inbounds nuw %struct.task_cg_info_t, ptr %122, i32 0, i32 0
  %124 = getelementptr inbounds nuw %struct.xcgroup_t, ptr %123, i32 0, i32 2
  %125 = load ptr, ptr %124, align 8
  %126 = call i32 (ptr, ...) @error(ptr noundef @.str.70, i32 noundef %121, ptr noundef %125)
  br label %127

127:                                              ; preds = %120, %114
  %128 = load i32, ptr %9, align 4
  %129 = load i32, ptr @task_special_id, align 4
  %130 = icmp ne i32 %128, %129
  br i1 %130, label %131, label %134

131:                                              ; preds = %127
  %132 = load ptr, ptr @task_list, align 8
  %133 = call i32 @list_delete_first(ptr noundef %132, ptr noundef @_find_purge_task_special, ptr noundef @task_special_id)
  br label %134

134:                                              ; preds = %131, %127
  store i32 0, ptr %5, align 4
  store i32 1, ptr %13, align 4
  br label %135

135:                                              ; preds = %134, %106, %91, %17
  call void @llvm.lifetime.end.p0(i64 1, ptr %12) #10
  call void @llvm.lifetime.end.p0(i64 8, ptr %11) #10
  call void @llvm.lifetime.end.p0(i64 8, ptr %10) #10
  %136 = load i32, ptr %5, align 4
  ret i32 %136
}