; Function Attrs: nounwind uwtable
define dso_local range(i32 -1, 1) i32 @cgroup_p_task_addto(i32 %0, ptr readnone captures(none) %1, i32 noundef %2, i32 noundef %3) local_unnamed_addr #0 {
  %5 = alloca i32, align 4
  %6 = alloca ptr, align 8
  %7 = alloca ptr, align 8
  store i32 %3, ptr %5, align 4
  call void @llvm.lifetime.start.p0(i64 8, ptr nonnull %6) #17
  call void @llvm.lifetime.start.p0(i64 8, ptr nonnull %7) #17
  store ptr null, ptr %7, align 8
  %8 = tail call i32 @getpid() #17
  %9 = icmp eq i32 %2, %8
  br i1 %9, label %80, label %10

10:                                               ; preds = %4
  %11 = load i32, ptr @task_special_id, align 4
  %12 = icmp eq i32 %3, %11
  %13 = load i64, ptr getelementptr inbounds nuw (i8, ptr @slurm_conf, i64 320), align 8
  %14 = and i64 %13, 36028797018963968
  %.not10 = icmp eq i64 %14, 0
  br i1 %12, label %15, label %20

15:                                               ; preds = %10
  br i1 %.not10, label %25, label %16

16:                                               ; preds = %15
  %17 = tail call i32 @get_log_level() #17
  %18 = icmp sgt i32 %17, 3
  br i1 %18, label %19, label %25

19:                                               ; preds = %16
  tail call void (i32, ptr, ...) @log_var(i32 noundef 4, ptr noundef nonnull @.str.62, ptr noundef nonnull @plugin_type, ptr noundef nonnull @__func__.cgroup_p_task_addto) #17
  br label %25

20:                                               ; preds = %10
  br i1 %.not10, label %25, label %21

21:                                               ; preds = %20
  %22 = tail call i32 @get_log_level() #17
  %23 = icmp sgt i32 %22, 3
  br i1 %23, label %24, label %25

24:                                               ; preds = %21
  tail call void (i32, ptr, ...) @log_var(i32 noundef 4, ptr noundef nonnull @.str.63, ptr noundef nonnull @plugin_type, ptr noundef nonnull @__func__.cgroup_p_task_addto, i32 noundef %3) #17
  br label %25

25:                                               ; preds = %20, %24, %21, %15, %19, %16
  %26 = load ptr, ptr @task_list, align 8
  %27 = call ptr @list_find_first(ptr noundef %26, ptr noundef nonnull @_find_task_cg_info, ptr noundef nonnull %5) #17
  store ptr %27, ptr %6, align 8
  %.not11 = icmp eq ptr %27, null
  br i1 %.not11, label %28, label %.critedge

28:                                               ; preds = %25
  %29 = call ptr @slurm_xcalloc(i64 noundef 1, i64 noundef 72, i1 noundef zeroext true, i1 noundef zeroext false, ptr noundef nonnull @.str.53, i32 noundef 2450, ptr noundef nonnull @__func__.cgroup_p_task_addto) #17
  store ptr %29, ptr %6, align 8
  %30 = load i32, ptr %5, align 4
  %31 = getelementptr inbounds nuw i8, ptr %29, i64 40
  store i32 %30, ptr %31, align 8
  %32 = load i32, ptr @task_special_id, align 4
  %33 = icmp eq i32 %30, %32
  %34 = load ptr, ptr getelementptr inbounds nuw (i8, ptr @int_cg, i64 248), align 8
  br i1 %33, label %35, label %36

35:                                               ; preds = %28
  call void (ptr, ptr, ...) @_xstrfmtcat(ptr noundef nonnull %7, ptr noundef nonnull @.str.64, ptr noundef %34) #17
  br label %37

36:                                               ; preds = %28
  call void (ptr, ptr, ...) @_xstrfmtcat(ptr noundef nonnull %7, ptr noundef nonnull @.str.65, ptr noundef %34, i32 noundef %30) #17
  br label %37

37:                                               ; preds = %36, %35
  %38 = load ptr, ptr %7, align 8
  %39 = call i32 @common_cgroup_create(ptr noundef nonnull @int_cg_ns, ptr noundef nonnull %29, ptr noundef %38, i32 noundef 0, i32 noundef 0) #17
  %.not12 = icmp eq i32 %39, 0
  br i1 %.not12, label %49, label %40

40:                                               ; preds = %37
  %41 = load i32, ptr %5, align 4
  %42 = load i32, ptr @task_special_id, align 4
  %43 = icmp eq i32 %41, %42
  br i1 %43, label %44, label %46

44:                                               ; preds = %40
  %45 = call i32 (ptr, ...) @error(ptr noundef nonnull @.str.66) #17
  br label %48

46:                                               ; preds = %40
  %47 = call i32 (ptr, ...) @error(ptr noundef nonnull @.str.67, i32 noundef %41) #17
  br label %48

48:                                               ; preds = %46, %44
  call void @slurm_xfree(ptr noundef nonnull %6) #17
  call void @slurm_xfree(ptr noundef nonnull %7) #17
  br label %80

49:                                               ; preds = %37
  call void @slurm_xfree(ptr noundef nonnull %7) #17
  %50 = load ptr, ptr %6, align 8
  %51 = call i32 @common_cgroup_instantiate(ptr noundef %50) #17
  %.not13 = icmp eq i32 %51, 0
  br i1 %.not13, label %62, label %52

52:                                               ; preds = %49
  %53 = load i32, ptr %5, align 4
  %54 = load i32, ptr @task_special_id, align 4
  %55 = icmp eq i32 %53, %54
  br i1 %55, label %56, label %58

56:                                               ; preds = %52
  %57 = call i32 (ptr, ...) @error(ptr noundef nonnull @.str.68) #17
  br label %60

58:                                               ; preds = %52
  %59 = call i32 (ptr, ...) @error(ptr noundef nonnull @.str.69, i32 noundef %53) #17
  br label %60

60:                                               ; preds = %58, %56
  %61 = load ptr, ptr %6, align 8
  call void @common_cgroup_destroy(ptr noundef %61) #17
  call void @slurm_xfree(ptr noundef nonnull %6) #17
  br label %80

62:                                               ; preds = %49
  %63 = load ptr, ptr %6, align 8
  %64 = getelementptr inbounds nuw i8, ptr %63, i64 48
  call void @init_ebpf_prog(ptr noundef nonnull %64) #17
  %65 = load ptr, ptr @task_list, align 8
  %66 = load ptr, ptr %6, align 8
  call void @list_append(ptr noundef %65, ptr noundef %66) #17
  %.pre = load ptr, ptr %6, align 8
  br label %.critedge

.critedge:                                        ; preds = %25, %62
  %67 = phi ptr [ %27, %25 ], [ %.pre, %62 ]
  %68 = call i32 @common_cgroup_move_process(ptr noundef %67, i32 noundef %2) #17
  %.not14 = icmp eq i32 %68, 0
  br i1 %.not14, label %74, label %69

69:                                               ; preds = %.critedge
  %70 = load ptr, ptr %6, align 8
  %71 = getelementptr inbounds nuw i8, ptr %70, i64 16
  %72 = load ptr, ptr %71, align 8
  %73 = call i32 (ptr, ...) @error(ptr noundef nonnull @.str.70, i32 noundef %2, ptr noundef %72) #17
  br label %74

74:                                               ; preds = %69, %.critedge
  %75 = load i32, ptr %5, align 4
  %76 = load i32, ptr @task_special_id, align 4
  %.not15 = icmp eq i32 %75, %76
  br i1 %.not15, label %80, label %77

77:                                               ; preds = %74
  %78 = load ptr, ptr @task_list, align 8
  %79 = call i32 @list_delete_first(ptr noundef %78, ptr noundef nonnull @_find_purge_task_special, ptr noundef nonnull @task_special_id) #17
  br label %80

80:                                               ; preds = %74, %77, %4, %60, %48
  %.05 = phi i32 [ -1, %48 ], [ -1, %60 ], [ 0, %4 ], [ 0, %77 ], [ 0, %74 ]
  call void @llvm.lifetime.end.p0(i64 8, ptr nonnull %7) #17
  call void @llvm.lifetime.end.p0(i64 8, ptr nonnull %6) #17
  ret i32 %.05
}